; Function Attrs: nounwind uwtable
define internal noundef zeroext i1 @HIDAPI_DriverXbox360_OpenJoystick(ptr noundef readonly captures(none) %0, ptr noundef %1) #0 {
  %3 = alloca [3 x i8], align 2
  %4 = alloca [3 x i8], align 2
  %5 = getelementptr inbounds nuw i8, ptr %0, i64 112
  %6 = load ptr, ptr %5, align 8
  tail call void @SDL_AssertJoysticksLocked() #9
  %7 = getelementptr inbounds nuw i8, ptr %6, i64 8
  store ptr %1, ptr %7, align 8
  %8 = getelementptr inbounds nuw i8, ptr %6, i64 21
  tail call void @llvm.memset.p0.i64(ptr noundef nonnull align 1 dereferenceable(64) %8, i8 0, i64 64, i1 false)
  %9 = tail call i32 @SDL_GetJoystickPlayerIndex_REAL(ptr noundef %1) #9
  %10 = getelementptr inbounds nuw i8, ptr %6, i64 16
  store i32 %9, ptr %10, align 8
  %11 = tail call zeroext i1 @SDL_GetHintBoolean_REAL(ptr noundef nonnull @.str.5, i1 noundef zeroext true) #9
  %12 = getelementptr inbounds nuw i8, ptr %6, i64 20
  %13 = zext i1 %11 to i8
  store i8 %13, ptr %12, align 4
  br i1 %11, label %14, label %25

14:                                               ; preds = %2
  %15 = load i32, ptr %10, align 8
  %16 = icmp sgt i32 %15, -1
  br i1 %16, label %17, label %25

17:                                               ; preds = %14
  %18 = load ptr, ptr %6, align 8
  %19 = getelementptr inbounds nuw i8, ptr %18, i64 128
  %20 = load ptr, ptr %19, align 8
  %21 = trunc i32 %15 to i8
  %22 = and i8 %21, 3
  %narrow.i.i = add nuw nsw i8 %22, 6
  call void @llvm.lifetime.start.p0(i64 3, ptr nonnull %4) #9
  store i16 769, ptr %4, align 2
  %23 = getelementptr inbounds nuw i8, ptr %4, i64 2
  store i8 %narrow.i.i, ptr %23, align 2
  %24 = call i32 @SDL_hid_write_REAL(ptr noundef %20, ptr noundef nonnull %4, i64 noundef 3) #9
  call void @llvm.lifetime.end.p0(i64 3, ptr nonnull %4) #9
  br label %UpdateSlotLED.exit

25:                                               ; preds = %14, %2
  %26 = load ptr, ptr %6, align 8
  %27 = getelementptr inbounds nuw i8, ptr %26, i64 128
  %28 = load ptr, ptr %27, align 8
  call void @llvm.lifetime.start.p0(i64 3, ptr nonnull %3) #9
  store i16 769, ptr %3, align 2
  %29 = getelementptr inbounds nuw i8, ptr %3, i64 2
  store i8 0, ptr %29, align 2
  %30 = call i32 @SDL_hid_write_REAL(ptr noundef %28, ptr noundef nonnull %3, i64 noundef 3) #9
  call void @llvm.lifetime.end.p0(i64 3, ptr nonnull %3) #9
  br label %UpdateSlotLED.exit

UpdateSlotLED.exit:                               ; preds = %17, %25
  %31 = call zeroext i1 @SDL_AddHintCallback_REAL(ptr noundef nonnull @.str.5, ptr noundef nonnull @SDL_PlayerLEDHintChanged, ptr noundef nonnull %6) #9
  %32 = getelementptr inbounds nuw i8, ptr %1, i64 112
  store i32 11, ptr %32, align 8
  %33 = getelementptr inbounds nuw i8, ptr %1, i64 68
  store i32 6, ptr %33, align 4
  %34 = getelementptr inbounds nuw i8, ptr %1, i64 96
  store i32 1, ptr %34, align 8
  ret i1 true
}